target datalayout = "e-m:e-p270:32:32-p271:32:32-p272:64:64-i64:64-i128:128-f80:128-n8:16:32:64-S128"
target triple = "x86_64-unknown-linux-gnu"

%"class.net::AeadBaseDecrypter" = type { %"class.net::QuicDecrypter", ptr, i64, i64, i64, i8, [32 x i8], [4 x i8], %"class.net::ScopedEVPAEADCtx" }
%"class.net::QuicDecrypter" = type { ptr }
%"class.net::ScopedEVPAEADCtx" = type { %struct.evp_aead_ctx_st }
%struct.evp_aead_ctx_st = type { ptr, ptr }
%"class.base::BasicStringPiece" = type { ptr, i64 }

; Function Attrs: mustprogress uwtable
define dso_local noundef zeroext i1 @_ZN3net17AeadBaseDecrypter17SetPreliminaryKeyEN4base16BasicStringPieceINSt7__cxx1112basic_stringIcSt11char_traitsIcESaIcEEEEE(ptr noundef nonnull align 8 dereferenceable(96) %this, ptr %key.coerce0, i64 %key.coerce1) unnamed_addr #0 align 2 {
entry:
  %key = alloca %"class.base::BasicStringPiece", align 8
  %this.addr = alloca ptr, align 8
  %agg.tmp = alloca %"class.base::BasicStringPiece", align 8
  %0 = getelementptr inbounds { ptr, i64 }, ptr %key, i32 0, i32 0
  store ptr %key.coerce0, ptr %0, align 8
  %1 = getelementptr inbounds { ptr, i64 }, ptr %key, i32 0, i32 1
  store i64 %key.coerce1, ptr %1, align 8
  store ptr %this, ptr %this.addr, align 8
  %this1 = load ptr, ptr %this.addr, align 8
  call void @llvm.memcpy.p0.p0.i64(ptr align 8 %agg.tmp, ptr align 8 %key, i64 16, i1 false)
  %2 = getelementptr inbounds { ptr, i64 }, ptr %agg.tmp, i32 0, i32 0
  %3 = load ptr, ptr %2, align 8
  %4 = getelementptr inbounds { ptr, i64 }, ptr %agg.tmp, i32 0, i32 1
  %5 = load i64, ptr %4, align 8
  %vtable = load ptr, ptr %this1, align 8
  %vfn = getelementptr inbounds ptr, ptr %vtable, i64 2
  %6 = load ptr, ptr %vfn, align 8
  %call = call noundef zeroext i1 %6(ptr noundef nonnull align 8 dereferenceable(96) %this1, ptr %3, i64 %5)
  %have_preliminary_key_ = getelementptr inbounds %"class.net::AeadBaseDecrypter", ptr %this1, i32 0, i32 5
  store i8 1, ptr %have_preliminary_key_, align 8
  ret i1 true
}