; Function Attrs: mustprogress uwtable
define dso_local noundef zeroext i1 @_ZN3net17AeadBaseDecrypter17SetPreliminaryKeyEN4base16BasicStringPieceINSt7__cxx1112basic_stringIcSt11char_traitsIcESaIcEEEEE(ptr noundef nonnull align 8 dereferenceable(96) %this, ptr %key.coerce0, i64 %key.coerce1) unnamed_addr #0 align 2 {
entry:
  %vtable = load ptr, ptr %this, align 8
  %vfn = getelementptr inbounds i8, ptr %vtable, i64 16
  %0 = load ptr, ptr %vfn, align 8
  %call = tail call noundef zeroext i1 %0(ptr noundef nonnull align 8 dereferenceable(96) %this, ptr %key.coerce0, i64 %key.coerce1)
  %have_preliminary_key_ = getelementptr inbounds i8, ptr %this, i64 40
  store i8 1, ptr %have_preliminary_key_, align 8
  ret i1 true
}